target datalayout = "e-m:e-p270:32:32-p271:32:32-p272:64:64-i64:64-i128:128-f80:128-n8:16:32:64-S128"
target triple = "x86_64-pc-linux-gnu"

%"class.std::__cxx11::basic_string" = type { %"struct.std::__cxx11::basic_string<char>::_Alloc_hider", i64, %union.anon }
%"struct.std::__cxx11::basic_string<char>::_Alloc_hider" = type { ptr }
%union.anon = type { i64, [8 x i8] }
%struct.BuildLog = type <{ %"class.emhash8::HashMap", ptr, %"class.std::__cxx11::basic_string", i8, [7 x i8] }>
%"class.emhash8::HashMap" = type <{ ptr, ptr, [4 x i8], i32, i32, i32, i32, i32, i32, [4 x i8] }>

@.str = private unnamed_addr constant [3 x i8] c"ab\00", align 1
@_ZN12_GLOBAL__N_114kFileSignatureE = internal constant [17 x i8] c"# ninja log v%d\0A\00", align 16

; Function Attrs: mustprogress nounwind uwtable
define available_externally noundef ptr @_ZNKSt7__cxx1112basic_stringIcSt11char_traitsIcESaIcEE7_M_dataEv(ptr noundef nonnull align 8 dereferenceable(32) %0) #0 align 2 {
  %2 = alloca ptr, align 8
  store ptr %0, ptr %2, align 8, !tbaa !16
  %3 = load ptr, ptr %2, align 8
  %4 = getelementptr inbounds nuw %"class.std::__cxx11::basic_string", ptr %3, i32 0, i32 0
  %5 = getelementptr inbounds nuw %"struct.std::__cxx11::basic_string<char>::_Alloc_hider", ptr %4, i32 0, i32 0
  %6 = load ptr, ptr %5, align 8, !tbaa !120
  ret ptr %6
}

; Function Attrs: mustprogress nounwind uwtable
define available_externally noundef i64 @_ZNKSt7__cxx1112basic_stringIcSt11char_traitsIcESaIcEE4sizeEv(ptr noundef nonnull align 8 dereferenceable(32) %0) #0 align 2 {
  %2 = alloca ptr, align 8
  store ptr %0, ptr %2, align 8, !tbaa !16
  %3 = load ptr, ptr %2, align 8
  %4 = getelementptr inbounds nuw %"class.std::__cxx11::basic_string", ptr %3, i32 0, i32 1
  %5 = load i64, ptr %4, align 8, !tbaa !119
  ret i64 %5
}

; Function Attrs: mustprogress nounwind uwtable
define available_externally noundef ptr @_ZNKSt7__cxx1112basic_stringIcSt11char_traitsIcESaIcEE5c_strEv(ptr noundef nonnull align 8 dereferenceable(32) %0) #0 align 2 {
  %2 = alloca ptr, align 8
  store ptr %0, ptr %2, align 8, !tbaa !16
  %3 = load ptr, ptr %2, align 8
  %4 = call noundef ptr @_ZNKSt7__cxx1112basic_stringIcSt11char_traitsIcESaIcEE7_M_dataEv(ptr noundef nonnull align 8 dereferenceable(32) %3)
  ret ptr %4
}

; Function Attrs: mustprogress nounwind uwtable
define available_externally noundef zeroext i1 @_ZNKSt7__cxx1112basic_stringIcSt11char_traitsIcESaIcEE5emptyEv(ptr noundef nonnull align 8 dereferenceable(32) %0) #0 align 2 {
  %2 = alloca ptr, align 8
  store ptr %0, ptr %2, align 8, !tbaa !16
  %3 = load ptr, ptr %2, align 8
  %4 = call noundef i64 @_ZNKSt7__cxx1112basic_stringIcSt11char_traitsIcESaIcEE4sizeEv(ptr noundef nonnull align 8 dereferenceable(32) %3) #9
  %5 = icmp eq i64 %4, 0
  ret i1 %5
}

; Function Attrs: mustprogress uwtable
define dso_local noundef zeroext i1 @_ZN8BuildLog20OpenForWriteIfNeededEv(ptr noundef nonnull align 8 dereferenceable(89) %0) #2 align 2 {
  %2 = alloca i1, align 1
  %3 = alloca ptr, align 8
  store ptr %0, ptr %3, align 8, !tbaa !28
  %4 = load ptr, ptr %3, align 8
  %5 = getelementptr inbounds nuw %struct.BuildLog, ptr %4, i32 0, i32 1
  %6 = load ptr, ptr %5, align 8, !tbaa !30
  %7 = icmp ne ptr %6, null
  br i1 %7, label %11, label %8

8:                                                ; preds = %1
  %9 = getelementptr inbounds nuw %struct.BuildLog, ptr %4, i32 0, i32 2
  %10 = call noundef zeroext i1 @_ZNKSt7__cxx1112basic_stringIcSt11char_traitsIcESaIcEE5emptyEv(ptr noundef nonnull align 8 dereferenceable(32) %9) #9
  br i1 %10, label %11, label %12

11:                                               ; preds = %8, %1
  store i1 true, ptr %2, align 1
  br label %46

12:                                               ; preds = %8
  %13 = getelementptr inbounds nuw %struct.BuildLog, ptr %4, i32 0, i32 2
  %14 = call noundef ptr @_ZNKSt7__cxx1112basic_stringIcSt11char_traitsIcESaIcEE5c_strEv(ptr noundef nonnull align 8 dereferenceable(32) %13) #9
  %15 = call noalias ptr @fopen(ptr noundef %14, ptr noundef @.str)
  %16 = getelementptr inbounds nuw %struct.BuildLog, ptr %4, i32 0, i32 1
  store ptr %15, ptr %16, align 8, !tbaa !30
  %17 = getelementptr inbounds nuw %struct.BuildLog, ptr %4, i32 0, i32 1
  %18 = load ptr, ptr %17, align 8, !tbaa !30
  %19 = icmp ne ptr %18, null
  br i1 %19, label %21, label %20

20:                                               ; preds = %12
  store i1 false, ptr %2, align 1
  br label %46

21:                                               ; preds = %12
  %22 = getelementptr inbounds nuw %struct.BuildLog, ptr %4, i32 0, i32 1
  %23 = load ptr, ptr %22, align 8, !tbaa !30
  %24 = call i32 @setvbuf(ptr noundef %23, ptr noundef null, i32 noundef 1, i64 noundef 8192) #9
  %25 = icmp ne i32 %24, 0
  br i1 %25, label %26, label %27

26:                                               ; preds = %21
  store i1 false, ptr %2, align 1
  br label %46

27:                                               ; preds = %21
  %28 = getelementptr inbounds nuw %struct.BuildLog, ptr %4, i32 0, i32 1
  %29 = load ptr, ptr %28, align 8, !tbaa !30
  %30 = call i32 @fileno(ptr noundef %29) #9
  call void @_Z14SetCloseOnExeci(i32 noundef %30)
  %31 = getelementptr inbounds nuw %struct.BuildLog, ptr %4, i32 0, i32 1
  %32 = load ptr, ptr %31, align 8, !tbaa !30
  %33 = call i32 @fseek(ptr noundef %32, i64 noundef 0, i32 noundef 2)
  %34 = getelementptr inbounds nuw %struct.BuildLog, ptr %4, i32 0, i32 1
  %35 = load ptr, ptr %34, align 8, !tbaa !30
  %36 = call i64 @ftell(ptr noundef %35)
  %37 = icmp eq i64 %36, 0
  br i1 %37, label %38, label %45

38:                                               ; preds = %27
  %39 = getelementptr inbounds nuw %struct.BuildLog, ptr %4, i32 0, i32 1
  %40 = load ptr, ptr %39, align 8, !tbaa !30
  %41 = call i32 (ptr, ptr, ...) @fprintf(ptr noundef %40, ptr noundef @_ZN12_GLOBAL__N_114kFileSignatureE, i32 noundef 7) #9
  %42 = icmp slt i32 %41, 0
  br i1 %42, label %43, label %44

43:                                               ; preds = %38
  store i1 false, ptr %2, align 1
  br label %46

44:                                               ; preds = %38
  br label %45

45:                                               ; preds = %44, %27
  store i1 true, ptr %2, align 1
  br label %46

46:                                               ; preds = %45, %43, %26, %20, %11
  %47 = load i1, ptr %2, align 1
  ret i1 %47
}