; Function Attrs: mustprogress uwtable
define dso_local noundef zeroext i1 @_ZN8BuildLog20OpenForWriteIfNeededEv(ptr noundef nonnull align 8 captures(none) dereferenceable(89) %0) local_unnamed_addr #2 align 2 {
  %2 = getelementptr inbounds nuw i8, ptr %0, i64 48
  %3 = load ptr, ptr %2, align 8, !tbaa !31
  %.not = icmp ne ptr %3, null
  %4 = getelementptr inbounds nuw i8, ptr %0, i64 64
  %5 = load i64, ptr %4, align 8
  %6 = icmp eq i64 %5, 0
  %or.cond = select i1 %.not, i1 true, i1 %6
  br i1 %or.cond, label %26, label %7

7:                                                ; preds = %1
  %8 = getelementptr inbounds nuw i8, ptr %0, i64 56
  %9 = load ptr, ptr %8, align 8, !tbaa !10
  %10 = tail call noalias ptr @fopen(ptr noundef %9, ptr noundef nonnull @.str)
  store ptr %10, ptr %2, align 8, !tbaa !31
  %.not3 = icmp eq ptr %10, null
  br i1 %.not3, label %26, label %11

11:                                               ; preds = %7
  %12 = tail call i32 @setvbuf(ptr noundef nonnull %10, ptr noundef null, i32 noundef 1, i64 noundef 8192) #27
  %.not4 = icmp eq i32 %12, 0
  br i1 %.not4, label %13, label %26

13:                                               ; preds = %11
  %14 = load ptr, ptr %2, align 8, !tbaa !31
  %15 = tail call i32 @fileno(ptr noundef %14) #27
  tail call void @_Z14SetCloseOnExeci(i32 noundef %15)
  %16 = load ptr, ptr %2, align 8, !tbaa !31
  %17 = tail call i32 @fseek(ptr noundef %16, i64 noundef 0, i32 noundef 2)
  %18 = load ptr, ptr %2, align 8, !tbaa !31
  %19 = tail call i64 @ftell(ptr noundef %18)
  %20 = icmp eq i64 %19, 0
  br i1 %20, label %21, label %25

21:                                               ; preds = %13
  %22 = load ptr, ptr %2, align 8, !tbaa !31
  %23 = tail call i32 (ptr, ptr, ...) @fprintf(ptr noundef %22, ptr noundef nonnull @_ZN12_GLOBAL__N_114kFileSignatureE, i32 noundef 7) #27
  %24 = icmp slt i32 %23, 0
  br i1 %24, label %26, label %25

25:                                               ; preds = %21, %13
  br label %26

26:                                               ; preds = %21, %11, %7, %1, %25
  %.0 = phi i1 [ true, %25 ], [ true, %1 ], [ false, %7 ], [ false, %11 ], [ false, %21 ]
  ret i1 %.0
}